; Function Attrs: mustprogress nounwind uwtable
define noundef zeroext i1 @_ZNK7glslang16HlslParseContext20hasStructBuffCounterERKNS_5TTypeE(ptr nocapture noundef nonnull readnone align 8 dereferenceable(2489) %0, ptr noundef nonnull align 8 dereferenceable(152) %1) local_unnamed_addr #0 align 2 {
  %3 = load ptr, ptr %1, align 8
  %4 = getelementptr inbounds i8, ptr %3, i64 88
  %5 = load ptr, ptr %4, align 8
  %6 = tail call noundef nonnull align 8 dereferenceable(80) ptr %5(ptr noundef nonnull align 8 dereferenceable(152) %1) #24
  %7 = getelementptr inbounds i8, ptr %6, i64 8
  %8 = load i64, ptr %7, align 8
  %9 = trunc i64 %8 to i32
  %10 = lshr i32 %9, 16
  %11 = and i32 %10, 511
  %.off = add nsw i32 %11, -143
  %switch = icmp ult i32 %.off, 2
  ret i1 %switch
}